target datalayout = "e-m:e-p270:32:32-p271:32:32-p272:64:64-i64:64-i128:128-f80:128-n8:16:32:64-S128"
target triple = "x86_64-pc-linux-gnu"

%struct.FunctionCallInfoBaseData = type { ptr, ptr, ptr, i32, i8, i16, [0 x %struct.NullableDatum] }
%struct.NullableDatum = type { i64, i8 }
%struct.varattrib_1b = type { i8, [0 x i8] }
%struct.anon = type { i32, [0 x i8] }
%struct.inet_struct = type { i8, i8, [16 x i8] }

; Function Attrs: inlinehint nounwind uwtable
define internal ptr @DatumGetPointer(i64 noundef %0) #2 {
  %2 = alloca i64, align 8
  store i64 %0, ptr %2, align 8
  %3 = load i64, ptr %2, align 8
  %4 = inttoptr i64 %3 to ptr
  ret ptr %4
}

; Function Attrs: inlinehint nounwind uwtable
define internal i64 @BoolGetDatum(i1 noundef zeroext %0) #2 {
  %2 = alloca i8, align 1
  %3 = zext i1 %0 to i8
  store i8 %3, ptr %2, align 1
  %4 = load i8, ptr %2, align 1, !range !4, !noundef !5
  %5 = trunc i8 %4 to i1
  %6 = select i1 %5, i32 1, i32 0
  %7 = sext i32 %6 to i64
  ret i64 %7
}

; Function Attrs: nounwind uwtable
define dso_local i32 @bitncmp(ptr noundef %0, ptr noundef %1, i32 noundef %2) #0 {
  %4 = alloca i32, align 4
  %5 = alloca ptr, align 8
  %6 = alloca ptr, align 8
  %7 = alloca i32, align 4
  %8 = alloca i32, align 4
  %9 = alloca i32, align 4
  %10 = alloca i32, align 4
  %11 = alloca i32, align 4
  %12 = alloca i32, align 4
  store ptr %0, ptr %5, align 8
  store ptr %1, ptr %6, align 8
  store i32 %2, ptr %7, align 4
  call void @llvm.lifetime.start.p0(i64 4, ptr %8) #8
  call void @llvm.lifetime.start.p0(i64 4, ptr %9) #8
  call void @llvm.lifetime.start.p0(i64 4, ptr %10) #8
  call void @llvm.lifetime.start.p0(i64 4, ptr %11) #8
  %13 = load i32, ptr %7, align 4
  %14 = sdiv i32 %13, 8
  store i32 %14, ptr %11, align 4
  %15 = load ptr, ptr %5, align 8
  %16 = load ptr, ptr %6, align 8
  %17 = load i32, ptr %11, align 4
  %18 = sext i32 %17 to i64
  %19 = call i32 @memcmp(ptr noundef %15, ptr noundef %16, i64 noundef %18) #9
  store i32 %19, ptr %10, align 4
  %20 = load i32, ptr %10, align 4
  %21 = icmp ne i32 %20, 0
  br i1 %21, label %26, label %22

22:                                               ; preds = %3
  %23 = load i32, ptr %7, align 4
  %24 = srem i32 %23, 8
  %25 = icmp eq i32 %24, 0
  br i1 %25, label %26, label %28

26:                                               ; preds = %22, %3
  %27 = load i32, ptr %10, align 4
  store i32 %27, ptr %4, align 4
  store i32 1, ptr %12, align 4
  br label %73

28:                                               ; preds = %22
  %29 = load ptr, ptr %5, align 8
  %30 = load i32, ptr %11, align 4
  %31 = sext i32 %30 to i64
  %32 = getelementptr inbounds i8, ptr %29, i64 %31
  %33 = load i8, ptr %32, align 1
  %34 = zext i8 %33 to i32
  store i32 %34, ptr %8, align 4
  %35 = load ptr, ptr %6, align 8
  %36 = load i32, ptr %11, align 4
  %37 = sext i32 %36 to i64
  %38 = getelementptr inbounds i8, ptr %35, i64 %37
  %39 = load i8, ptr %38, align 1
  %40 = zext i8 %39 to i32
  store i32 %40, ptr %9, align 4
  %41 = load i32, ptr %7, align 4
  %42 = srem i32 %41, 8
  store i32 %42, ptr %11, align 4
  br label %43

43:                                               ; preds = %69, %28
  %44 = load i32, ptr %11, align 4
  %45 = icmp sgt i32 %44, 0
  br i1 %45, label %46, label %72

46:                                               ; preds = %43
  %47 = load i32, ptr %8, align 4
  %48 = trunc i32 %47 to i8
  %49 = zext i8 %48 to i32
  %50 = and i32 %49, 128
  %51 = load i32, ptr %9, align 4
  %52 = trunc i32 %51 to i8
  %53 = zext i8 %52 to i32
  %54 = and i32 %53, 128
  %55 = icmp ne i32 %50, %54
  br i1 %55, label %56, label %64

56:                                               ; preds = %46
  %57 = load i32, ptr %8, align 4
  %58 = trunc i32 %57 to i8
  %59 = zext i8 %58 to i32
  %60 = and i32 %59, 128
  %61 = icmp ne i32 %60, 0
  br i1 %61, label %62, label %63

62:                                               ; preds = %56
  store i32 1, ptr %4, align 4
  store i32 1, ptr %12, align 4
  br label %73

63:                                               ; preds = %56
  store i32 -1, ptr %4, align 4
  store i32 1, ptr %12, align 4
  br label %73

64:                                               ; preds = %46
  %65 = load i32, ptr %8, align 4
  %66 = shl i32 %65, 1
  store i32 %66, ptr %8, align 4
  %67 = load i32, ptr %9, align 4
  %68 = shl i32 %67, 1
  store i32 %68, ptr %9, align 4
  br label %69

69:                                               ; preds = %64
  %70 = load i32, ptr %11, align 4
  %71 = add i32 %70, -1
  store i32 %71, ptr %11, align 4
  br label %43, !llvm.loop !9

72:                                               ; preds = %43
  store i32 0, ptr %4, align 4
  store i32 1, ptr %12, align 4
  br label %73

73:                                               ; preds = %72, %63, %62, %26
  call void @llvm.lifetime.end.p0(i64 4, ptr %11) #8
  call void @llvm.lifetime.end.p0(i64 4, ptr %10) #8
  call void @llvm.lifetime.end.p0(i64 4, ptr %9) #8
  call void @llvm.lifetime.end.p0(i64 4, ptr %8) #8
  %74 = load i32, ptr %4, align 4
  ret i32 %74
}

; Function Attrs: inlinehint nounwind uwtable
define internal ptr @DatumGetInetPP(i64 noundef %0) #2 {
  %2 = alloca i64, align 8
  store i64 %0, ptr %2, align 8
  %3 = load i64, ptr %2, align 8
  %4 = call ptr @DatumGetPointer(i64 noundef %3)
  %5 = call ptr @pg_detoast_datum_packed(ptr noundef %4)
  ret ptr %5
}

; Function Attrs: nounwind uwtable
define dso_local i64 @network_sup(ptr noundef %0) #0 {
  %2 = alloca i64, align 8
  %3 = alloca ptr, align 8
  %4 = alloca ptr, align 8
  %5 = alloca ptr, align 8
  %6 = alloca i32, align 4
  store ptr %0, ptr %3, align 8
  call void @llvm.lifetime.start.p0(i64 8, ptr %4) #8
  %7 = load ptr, ptr %3, align 8
  %8 = getelementptr inbounds nuw %struct.FunctionCallInfoBaseData, ptr %7, i32 0, i32 6
  %9 = getelementptr inbounds [0 x %struct.NullableDatum], ptr %8, i64 0, i64 0
  %10 = getelementptr inbounds nuw %struct.NullableDatum, ptr %9, i32 0, i32 0
  %11 = load i64, ptr %10, align 8
  %12 = call ptr @DatumGetInetPP(i64 noundef %11)
  store ptr %12, ptr %4, align 8
  call void @llvm.lifetime.start.p0(i64 8, ptr %5) #8
  %13 = load ptr, ptr %3, align 8
  %14 = getelementptr inbounds nuw %struct.FunctionCallInfoBaseData, ptr %13, i32 0, i32 6
  %15 = getelementptr inbounds [0 x %struct.NullableDatum], ptr %14, i64 0, i64 1
  %16 = getelementptr inbounds nuw %struct.NullableDatum, ptr %15, i32 0, i32 0
  %17 = load i64, ptr %16, align 8
  %18 = call ptr @DatumGetInetPP(i64 noundef %17)
  store ptr %18, ptr %5, align 8
  %19 = load ptr, ptr %4, align 8
  %20 = getelementptr inbounds nuw %struct.varattrib_1b, ptr %19, i32 0, i32 0
  %21 = load i8, ptr %20, align 1
  %22 = zext i8 %21 to i32
  %23 = and i32 %22, 1
  %24 = icmp eq i32 %23, 1
  br i1 %24, label %25, label %29

25:                                               ; preds = %1
  %26 = load ptr, ptr %4, align 8
  %27 = getelementptr inbounds nuw %struct.varattrib_1b, ptr %26, i32 0, i32 1
  %28 = getelementptr inbounds [0 x i8], ptr %27, i64 0, i64 0
  br label %33

29:                                               ; preds = %1
  %30 = load ptr, ptr %4, align 8
  %31 = getelementptr inbounds nuw %struct.anon, ptr %30, i32 0, i32 1
  %32 = getelementptr inbounds [0 x i8], ptr %31, i64 0, i64 0
  br label %33

33:                                               ; preds = %29, %25
  %34 = phi ptr [ %28, %25 ], [ %32, %29 ]
  %35 = getelementptr inbounds nuw %struct.inet_struct, ptr %34, i32 0, i32 0
  %36 = load i8, ptr %35, align 1
  %37 = zext i8 %36 to i32
  %38 = load ptr, ptr %5, align 8
  %39 = getelementptr inbounds nuw %struct.varattrib_1b, ptr %38, i32 0, i32 0
  %40 = load i8, ptr %39, align 1
  %41 = zext i8 %40 to i32
  %42 = and i32 %41, 1
  %43 = icmp eq i32 %42, 1
  br i1 %43, label %44, label %48

44:                                               ; preds = %33
  %45 = load ptr, ptr %5, align 8
  %46 = getelementptr inbounds nuw %struct.varattrib_1b, ptr %45, i32 0, i32 1
  %47 = getelementptr inbounds [0 x i8], ptr %46, i64 0, i64 0
  br label %52

48:                                               ; preds = %33
  %49 = load ptr, ptr %5, align 8
  %50 = getelementptr inbounds nuw %struct.anon, ptr %49, i32 0, i32 1
  %51 = getelementptr inbounds [0 x i8], ptr %50, i64 0, i64 0
  br label %52

52:                                               ; preds = %48, %44
  %53 = phi ptr [ %47, %44 ], [ %51, %48 ]
  %54 = getelementptr inbounds nuw %struct.inet_struct, ptr %53, i32 0, i32 0
  %55 = load i8, ptr %54, align 1
  %56 = zext i8 %55 to i32
  %57 = icmp eq i32 %37, %56
  br i1 %57, label %58, label %159

58:                                               ; preds = %52
  %59 = load ptr, ptr %4, align 8
  %60 = getelementptr inbounds nuw %struct.varattrib_1b, ptr %59, i32 0, i32 0
  %61 = load i8, ptr %60, align 1
  %62 = zext i8 %61 to i32
  %63 = and i32 %62, 1
  %64 = icmp eq i32 %63, 1
  br i1 %64, label %65, label %69

65:                                               ; preds = %58
  %66 = load ptr, ptr %4, align 8
  %67 = getelementptr inbounds nuw %struct.varattrib_1b, ptr %66, i32 0, i32 1
  %68 = getelementptr inbounds [0 x i8], ptr %67, i64 0, i64 0
  br label %73

69:                                               ; preds = %58
  %70 = load ptr, ptr %4, align 8
  %71 = getelementptr inbounds nuw %struct.anon, ptr %70, i32 0, i32 1
  %72 = getelementptr inbounds [0 x i8], ptr %71, i64 0, i64 0
  br label %73

73:                                               ; preds = %69, %65
  %74 = phi ptr [ %68, %65 ], [ %72, %69 ]
  %75 = getelementptr inbounds nuw %struct.inet_struct, ptr %74, i32 0, i32 1
  %76 = load i8, ptr %75, align 1
  %77 = zext i8 %76 to i32
  %78 = load ptr, ptr %5, align 8
  %79 = getelementptr inbounds nuw %struct.varattrib_1b, ptr %78, i32 0, i32 0
  %80 = load i8, ptr %79, align 1
  %81 = zext i8 %80 to i32
  %82 = and i32 %81, 1
  %83 = icmp eq i32 %82, 1
  br i1 %83, label %84, label %88

84:                                               ; preds = %73
  %85 = load ptr, ptr %5, align 8
  %86 = getelementptr inbounds nuw %struct.varattrib_1b, ptr %85, i32 0, i32 1
  %87 = getelementptr inbounds [0 x i8], ptr %86, i64 0, i64 0
  br label %92

88:                                               ; preds = %73
  %89 = load ptr, ptr %5, align 8
  %90 = getelementptr inbounds nuw %struct.anon, ptr %89, i32 0, i32 1
  %91 = getelementptr inbounds [0 x i8], ptr %90, i64 0, i64 0
  br label %92

92:                                               ; preds = %88, %84
  %93 = phi ptr [ %87, %84 ], [ %91, %88 ]
  %94 = getelementptr inbounds nuw %struct.inet_struct, ptr %93, i32 0, i32 1
  %95 = load i8, ptr %94, align 1
  %96 = zext i8 %95 to i32
  %97 = icmp slt i32 %77, %96
  br i1 %97, label %98, label %156

98:                                               ; preds = %92
  %99 = load ptr, ptr %4, align 8
  %100 = getelementptr inbounds nuw %struct.varattrib_1b, ptr %99, i32 0, i32 0
  %101 = load i8, ptr %100, align 1
  %102 = zext i8 %101 to i32
  %103 = and i32 %102, 1
  %104 = icmp eq i32 %103, 1
  br i1 %104, label %105, label %109

105:                                              ; preds = %98
  %106 = load ptr, ptr %4, align 8
  %107 = getelementptr inbounds nuw %struct.varattrib_1b, ptr %106, i32 0, i32 1
  %108 = getelementptr inbounds [0 x i8], ptr %107, i64 0, i64 0
  br label %113

109:                                              ; preds = %98
  %110 = load ptr, ptr %4, align 8
  %111 = getelementptr inbounds nuw %struct.anon, ptr %110, i32 0, i32 1
  %112 = getelementptr inbounds [0 x i8], ptr %111, i64 0, i64 0
  br label %113

113:                                              ; preds = %109, %105
  %114 = phi ptr [ %108, %105 ], [ %112, %109 ]
  %115 = getelementptr inbounds nuw %struct.inet_struct, ptr %114, i32 0, i32 2
  %116 = getelementptr inbounds [16 x i8], ptr %115, i64 0, i64 0
  %117 = load ptr, ptr %5, align 8
  %118 = getelementptr inbounds nuw %struct.varattrib_1b, ptr %117, i32 0, i32 0
  %119 = load i8, ptr %118, align 1
  %120 = zext i8 %119 to i32
  %121 = and i32 %120, 1
  %122 = icmp eq i32 %121, 1
  br i1 %122, label %123, label %127

123:                                              ; preds = %113
  %124 = load ptr, ptr %5, align 8
  %125 = getelementptr inbounds nuw %struct.varattrib_1b, ptr %124, i32 0, i32 1
  %126 = getelementptr inbounds [0 x i8], ptr %125, i64 0, i64 0
  br label %131

127:                                              ; preds = %113
  %128 = load ptr, ptr %5, align 8
  %129 = getelementptr inbounds nuw %struct.anon, ptr %128, i32 0, i32 1
  %130 = getelementptr inbounds [0 x i8], ptr %129, i64 0, i64 0
  br label %131

131:                                              ; preds = %127, %123
  %132 = phi ptr [ %126, %123 ], [ %130, %127 ]
  %133 = getelementptr inbounds nuw %struct.inet_struct, ptr %132, i32 0, i32 2
  %134 = getelementptr inbounds [16 x i8], ptr %133, i64 0, i64 0
  %135 = load ptr, ptr %4, align 8
  %136 = getelementptr inbounds nuw %struct.varattrib_1b, ptr %135, i32 0, i32 0
  %137 = load i8, ptr %136, align 1
  %138 = zext i8 %137 to i32
  %139 = and i32 %138, 1
  %140 = icmp eq i32 %139, 1
  br i1 %140, label %141, label %145

141:                                              ; preds = %131
  %142 = load ptr, ptr %4, align 8
  %143 = getelementptr inbounds nuw %struct.varattrib_1b, ptr %142, i32 0, i32 1
  %144 = getelementptr inbounds [0 x i8], ptr %143, i64 0, i64 0
  br label %149

145:                                              ; preds = %131
  %146 = load ptr, ptr %4, align 8
  %147 = getelementptr inbounds nuw %struct.anon, ptr %146, i32 0, i32 1
  %148 = getelementptr inbounds [0 x i8], ptr %147, i64 0, i64 0
  br label %149

149:                                              ; preds = %145, %141
  %150 = phi ptr [ %144, %141 ], [ %148, %145 ]
  %151 = getelementptr inbounds nuw %struct.inet_struct, ptr %150, i32 0, i32 1
  %152 = load i8, ptr %151, align 1
  %153 = zext i8 %152 to i32
  %154 = call i32 @bitncmp(ptr noundef %116, ptr noundef %134, i32 noundef %153)
  %155 = icmp eq i32 %154, 0
  br label %156

156:                                              ; preds = %149, %92
  %157 = phi i1 [ false, %92 ], [ %155, %149 ]
  %158 = call i64 @BoolGetDatum(i1 noundef zeroext %157)
  store i64 %158, ptr %2, align 8
  store i32 1, ptr %6, align 4
  br label %161

159:                                              ; preds = %52
  %160 = call i64 @BoolGetDatum(i1 noundef zeroext false)
  store i64 %160, ptr %2, align 8
  store i32 1, ptr %6, align 4
  br label %161

161:                                              ; preds = %159, %156
  call void @llvm.lifetime.end.p0(i64 8, ptr %5) #8
  call void @llvm.lifetime.end.p0(i64 8, ptr %4) #8
  %162 = load i64, ptr %2, align 8
  ret i64 %162
}