; Function Attrs: nounwind uwtable
define dso_local range(i64 0, 2) i64 @network_sup(ptr noundef readonly captures(none) %0) local_unnamed_addr #0 {
  %2 = getelementptr inbounds nuw i8, ptr %0, i64 32
  %3 = load i64, ptr %2, align 8
  %4 = inttoptr i64 %3 to ptr
  %5 = tail call ptr @pg_detoast_datum_packed(ptr noundef %4) #14
  %6 = getelementptr inbounds nuw i8, ptr %0, i64 48
  %7 = load i64, ptr %6, align 8
  %8 = inttoptr i64 %7 to ptr
  %9 = tail call ptr @pg_detoast_datum_packed(ptr noundef %8) #14
  %10 = load i8, ptr %5, align 1
  %11 = and i8 %10, 1
  %.not = icmp eq i8 %11, 0
  %.v = select i1 %.not, i64 4, i64 1
  %12 = getelementptr inbounds nuw i8, ptr %5, i64 %.v
  %13 = load i8, ptr %12, align 1
  %14 = load i8, ptr %9, align 1
  %15 = and i8 %14, 1
  %.not24 = icmp eq i8 %15, 0
  %.v25 = select i1 %.not24, i64 4, i64 1
  %16 = getelementptr inbounds nuw i8, ptr %9, i64 %.v25
  %17 = load i8, ptr %16, align 1
  %18 = icmp eq i8 %13, %17
  br i1 %18, label %19, label %bitncmp.exit

19:                                               ; preds = %1
  %20 = getelementptr inbounds nuw i8, ptr %12, i64 1
  %21 = load i8, ptr %20, align 1
  %22 = getelementptr inbounds nuw i8, ptr %16, i64 1
  %23 = load i8, ptr %22, align 1
  %24 = icmp ult i8 %21, %23
  br i1 %24, label %25, label %bitncmp.exit

25:                                               ; preds = %19
  %26 = getelementptr inbounds nuw i8, ptr %12, i64 2
  %27 = getelementptr inbounds nuw i8, ptr %16, i64 2
  %28 = lshr i8 %21, 3
  %29 = zext nneg i8 %28 to i64
  %bcmp = tail call i32 @bcmp(ptr nonnull %26, ptr nonnull %27, i64 %29)
  %.not.i = icmp eq i32 %bcmp, 0
  br i1 %.not.i, label %30, label %bitncmp.exit

30:                                               ; preds = %25
  %31 = and i8 %21, 7
  %.not28 = icmp eq i8 %31, 0
  br i1 %.not28, label %bitncmp.exit, label %.lr.ph.preheader.i

.lr.ph.preheader.i:                               ; preds = %30
  %.zext27 = zext nneg i8 %31 to i32
  %32 = getelementptr inbounds nuw i8, ptr %27, i64 %29
  %33 = load i8, ptr %32, align 1
  %34 = zext i8 %33 to i32
  %35 = getelementptr inbounds nuw i8, ptr %26, i64 %29
  %36 = load i8, ptr %35, align 1
  %37 = zext i8 %36 to i32
  br label %.lr.ph.i

.lr.ph.i:                                         ; preds = %40, %.lr.ph.preheader.i
  %.028.i = phi i32 [ %43, %40 ], [ %.zext27, %.lr.ph.preheader.i ]
  %.02027.i = phi i32 [ %42, %40 ], [ %34, %.lr.ph.preheader.i ]
  %.02126.i = phi i32 [ %41, %40 ], [ %37, %.lr.ph.preheader.i ]
  %38 = xor i32 %.02126.i, %.02027.i
  %39 = and i32 %38, 128
  %.not24.i = icmp eq i32 %39, 0
  br i1 %.not24.i, label %40, label %bitncmp.exit

40:                                               ; preds = %.lr.ph.i
  %41 = shl i32 %.02126.i, 1
  %42 = shl i32 %.02027.i, 1
  %43 = add nsw i32 %.028.i, -1
  %44 = icmp sgt i32 %.028.i, 1
  br i1 %44, label %.lr.ph.i, label %bitncmp.exit, !llvm.loop !23

bitncmp.exit:                                     ; preds = %.lr.ph.i, %40, %19, %25, %30, %1
  %.0 = phi i64 [ 0, %1 ], [ 0, %19 ], [ 1, %30 ], [ 0, %25 ], [ 0, %.lr.ph.i ], [ 1, %40 ]
  ret i64 %.0
}